target datalayout = "e-m:e-p270:32:32-p271:32:32-p272:64:64-i64:64-i128:128-f80:128-n8:16:32:64-S128"
target triple = "x86_64-pc-linux-gnu"

@.str = private unnamed_addr constant [10 x i8] c"Two-level\00", align 1
@.str.1 = private unnamed_addr constant [6 x i8] c"|read\00", align 1
@.str.2 = private unnamed_addr constant [7 x i8] c"|write\00", align 1
@.str.3 = private unnamed_addr constant [4 x i8] c"|ps\00", align 1
@.str.4 = private unnamed_addr constant [5 x i8] c"|gen\00", align 1
@.str.5 = private unnamed_addr constant [7 x i8] c"|merge\00", align 1
@.str.6 = private unnamed_addr constant [6 x i8] c"|test\00", align 1

; Function Attrs: nounwind uwtable
define void @Pla_Init(ptr noundef %0) #0 {
  %2 = alloca ptr, align 8
  store ptr %0, ptr %2, align 8, !tbaa !3
  %3 = load ptr, ptr %2, align 8, !tbaa !3
  call void @Cmd_CommandAdd(ptr noundef %3, ptr noundef @.str, ptr noundef @.str.1, ptr noundef @Abc_CommandReadPla, i32 noundef 0)
  %4 = load ptr, ptr %2, align 8, !tbaa !3
  call void @Cmd_CommandAdd(ptr noundef %4, ptr noundef @.str, ptr noundef @.str.2, ptr noundef @Abc_CommandWritePla, i32 noundef 0)
  %5 = load ptr, ptr %2, align 8, !tbaa !3
  call void @Cmd_CommandAdd(ptr noundef %5, ptr noundef @.str, ptr noundef @.str.3, ptr noundef @Abc_CommandPs, i32 noundef 0)
  %6 = load ptr, ptr %2, align 8, !tbaa !3
  call void @Cmd_CommandAdd(ptr noundef %6, ptr noundef @.str, ptr noundef @.str.4, ptr noundef @Abc_CommandGen, i32 noundef 0)
  %7 = load ptr, ptr %2, align 8, !tbaa !3
  call void @Cmd_CommandAdd(ptr noundef %7, ptr noundef @.str, ptr noundef @.str.5, ptr noundef @Abc_CommandMerge, i32 noundef 0)
  %8 = load ptr, ptr %2, align 8, !tbaa !3
  call void @Cmd_CommandAdd(ptr noundef %8, ptr noundef @.str, ptr noundef @.str.6, ptr noundef @Abc_CommandTest, i32 noundef 0)
  ret void
}