; Function Attrs: nounwind uwtable
define void @Pla_Init(ptr noundef %0) local_unnamed_addr #0 {
  tail call void @Cmd_CommandAdd(ptr noundef %0, ptr noundef nonnull @.str, ptr noundef nonnull @.str.1, ptr noundef nonnull @Abc_CommandReadPla, i32 noundef 0) #10
  tail call void @Cmd_CommandAdd(ptr noundef %0, ptr noundef nonnull @.str, ptr noundef nonnull @.str.2, ptr noundef nonnull @Abc_CommandWritePla, i32 noundef 0) #10
  tail call void @Cmd_CommandAdd(ptr noundef %0, ptr noundef nonnull @.str, ptr noundef nonnull @.str.3, ptr noundef nonnull @Abc_CommandPs, i32 noundef 0) #10
  tail call void @Cmd_CommandAdd(ptr noundef %0, ptr noundef nonnull @.str, ptr noundef nonnull @.str.4, ptr noundef nonnull @Abc_CommandGen, i32 noundef 0) #10
  tail call void @Cmd_CommandAdd(ptr noundef %0, ptr noundef nonnull @.str, ptr noundef nonnull @.str.5, ptr noundef nonnull @Abc_CommandMerge, i32 noundef 0) #10
  tail call void @Cmd_CommandAdd(ptr noundef %0, ptr noundef nonnull @.str, ptr noundef nonnull @.str.6, ptr noundef nonnull @Abc_CommandTest, i32 noundef 0) #10
  ret void
}